Certificate:
    Data:
        Version: 3 (0x2)
        Serial Number: 3 (0x3)
    Signature Algorithm: sha256WithRSAEncryption
        Issuer: CN=Easy-RSA CA
        Validity
            Not Before: Dec 19 13:49:25 2014 GMT
            Not After : Dec 16 13:49:25 2024 GMT
        Subject: CN=test_x509_client
        Subject Public Key Info:
            Public Key Algorithm: rsaEncryption
                Public-Key: (1024 bit)
                Modulus:
                    00:9f:ae:d4:c5:bb:68:eb:56:70:86:71:4f:74:34:
                    00:57:41:91:74:ef:bb:47:ea:8f:f2:fa:b9:75:03:
                    5e:12:9c:58:79:1b:98:aa:82:fb:14:59:ca:50:c2:
                    18:2f:5a:c5:04:70:8d:ae:24:f4:71:34:55:75:a5:
                    72:0d:dd:4d:a2:f0:b2:3b:65:da:b9:9c:9e:9f:1a:
                    d2:d7:a8:5b:9c:8a:3d:27:e9:f5:62:cf:2b:13:b2:
                    25:2f:31:3b:57:70:18:c0:6d:8e:92:25:de:71:ec:
                    44:83:1a:1e:5f:b1:61:2b:c7:aa:fc:9c:83:4c:c9:
                    c3:46:91:f0:4d:39:45:e7:ff
                Exponent: 65537 (0x10001)
        X509v3 extensions:
            X509v3 Basic Constraints: 
                CA:FALSE
            X509v3 Subject Key Identifier: 
                3B:F2:F4:B7:CB:54:BD:1D:5D:92:99:7D:1F:0C:CB:39:63:4F:7B:99
            X509v3 Authority Key Identifier: 
                keyid:B1:F0:83:48:63:1E:70:8F:BA:90:59:0D:67:A4:7E:AD:62:62:92:FF
                DirName:/CN=Easy-RSA CA
                serial:A2:3F:7C:AB:89:94:1E:6F

            X509v3 Extended Key Usage: 
                TLS Web Client Authentication
            X509v3 Key Usage: 
                Digital Signature
    Signature Algorithm: sha256WithRSAEncryption
         24:1b:24:75:26:e5:9e:05:92:b8:46:9f:93:12:a3:96:15:67:
         1b:f1:09:f8:34:f2:05:d9:63:b4:95:82:a1:9e:8c:a5:ca:33:
         92:f9:e6:5b:14:22:68:11:ec:86:7d:7b:7b:3f:bf:b6:50:f2:
         0a:6e:e6:b3:4e:63:c1:fb:29:5b:3a:4b:89:2d:a5:9d:8a:1a:
         26:77:da:3a:9a:25:78:61:29:3c:08:22:fb:6e:9b:c6:d9:28:
         12:de:38:0d:a4:4c:3e:35:5e:96:b2:53:45:85:d7:70:8b:1a:
         16:e1:3e:bf:16:84:f9:77:4e:61:ac:b2:8b:7d:c0:67:cd:f7:
         50:dd
-----BEGIN CERTIFICATE-----
MIICPzCCAaigAwIBAgIBAzANBgkqhkiG9w0BAQsFADAWMRQwEgYDVQQDDAtFYXN5
LVJTQSBDQTAeFw0xNDEyMTkxMzQ5MjVaFw0yNDEyMTYxMzQ5MjVaMBsxGTAXBgNV
BAMMEHRlc3RfeDUwOV9jbGllbnQwgZ8wDQYJKoZIhvcNAQEBBQADgY0AMIGJAoGB
AJ+u1MW7aOtWcIZxT3Q0AFdBkXTvu0fqj/L6uXUDXhKcWHkbmKqC+xRZylDCGC9a
xQRwja4k9HE0VXWlcg3dTaLwsjtl2rmcnp8a0teoW5yKPSfp9WLPKxOyJS8xO1dw
GMBtjpIl3nHsRIMaHl+xYSvHqvycg0zJw0aR8E05Ref/AgMBAAGjgZcwgZQwCQYD
VR0TBAIwADAdBgNVHQ4EFgQUO/L0t8tUvR1dkpl9HwzLOWNPe5kwRgYDVR0jBD8w
PYAUsfCDSGMecI+6kFkNZ6R+rWJikv+hGqQYMBYxFDASBgNVBAMMC0Vhc3ktUlNB
IENBggkAoj98q4mUHm8wEwYDVR0lBAwwCgYIKwYBBQUHAwIwCwYDVR0PBAQDAgeA
MA0GCSqGSIb3DQEBCwUAA4GBACQbJHUm5Z4FkrhGn5MSo5YVZxvxCfg08gXZY7SV
gqGejKXKM5L55lsUImgR7IZ9e3s/v7ZQ8gpu5rNOY8H7KVs6S4ktpZ2KGiZ32jqa
JXhhKTwIIvtum8bZKBLeOA2kTD41XpayU0WF13CLGhbhPr8WhPl3TmGssot9wGfN
91Dd
-----END CERTIFICATE-----
