Certificate:
    Data:
        Version: 3 (0x2)
        Serial Number: 1 (0x1)
    Signature Algorithm: sha256WithRSAEncryption
        Issuer: CN=Easy-RSA CA
        Validity
            Not Before: Dec 19 00:28:06 2014 GMT
            Not After : Dec 16 00:28:06 2024 GMT
        Subject: CN=192.168.13.0_x509_server
        Subject Public Key Info:
            Public Key Algorithm: rsaEncryption
                Public-Key: (1024 bit)
                Modulus:
                    00:b5:7a:c2:08:dd:23:44:87:27:43:b1:b7:19:a1:
                    b9:5e:1b:63:47:89:f6:9a:56:94:4d:40:58:d8:6c:
                    2b:d8:9f:92:df:0e:a9:5a:3a:33:f1:c4:28:b8:f1:
                    97:2a:99:76:08:84:bd:82:bc:15:a3:71:c7:b5:aa:
                    e1:0e:ed:ec:41:60:a5:f6:49:86:3b:06:9d:1e:40:
                    41:de:44:5e:bd:20:c3:c3:55:b3:78:29:5c:da:07:
                    84:38:31:b9:0a:5c:c4:06:85:0e:28:1b:61:4d:53:
                    ce:8b:a3:86:40:b6:ef:73:24:24:27:67:5d:33:06:
                    f5:84:a9:4a:99:e5:42:d0:03
                Exponent: 65537 (0x10001)
        X509v3 extensions:
            X509v3 Basic Constraints: 
                CA:FALSE
            X509v3 Subject Key Identifier: 
                11:8A:69:F6:46:BC:AC:B3:BD:AD:E4:9E:80:D3:8E:C1:6C:97:20:D1
            X509v3 Authority Key Identifier: 
                keyid:B1:F0:83:48:63:1E:70:8F:BA:90:59:0D:67:A4:7E:AD:62:62:92:FF
                DirName:/CN=Easy-RSA CA
                serial:A2:3F:7C:AB:89:94:1E:6F

            X509v3 Extended Key Usage: 
                TLS Web Server Authentication
            X509v3 Key Usage: 
                Digital Signature, Key Encipherment
    Signature Algorithm: sha256WithRSAEncryption
         44:6d:fb:59:7a:c5:4f:d5:87:57:67:cb:f3:c6:5f:26:73:67:
         6c:e9:13:ab:91:cf:ba:3e:e2:85:13:38:6e:0d:0f:de:54:f4:
         47:22:84:aa:62:00:6e:b4:57:c6:37:e7:ff:2d:d0:e1:87:8d:
         8b:d9:b3:97:29:44:e5:36:fd:21:eb:e3:f1:8e:12:3c:da:10:
         84:e1:72:fe:be:5e:e4:76:5f:5b:e7:1e:ee:bf:9b:35:36:50:
         bf:45:34:fc:87:1b:8e:f9:d0:2a:34:99:4c:b8:a6:df:50:19:
         55:ed:09:42:df:ca:1e:89:09:c3:05:a3:21:66:3a:d5:16:ea:
         0a:5e
-----BEGIN CERTIFICATE-----
MIICRzCCAbCgAwIBAgIBATANBgkqhkiG9w0BAQsFADAWMRQwEgYDVQQDDAtFYXN5
LVJTQSBDQTAeFw0xNDEyMTkwMDI4MDZaFw0yNDEyMTYwMDI4MDZaMCMxITAfBgNV
BAMMGDE5Mi4xNjguMTMuMF94NTA5X3NlcnZlcjCBnzANBgkqhkiG9w0BAQEFAAOB
jQAwgYkCgYEAtXrCCN0jRIcnQ7G3GaG5XhtjR4n2mlaUTUBY2Gwr2J+S3w6pWjoz
8cQouPGXKpl2CIS9grwVo3HHtarhDu3sQWCl9kmGOwadHkBB3kRevSDDw1WzeClc
2geEODG5ClzEBoUOKBthTVPOi6OGQLbvcyQkJ2ddMwb1hKlKmeVC0AMCAwEAAaOB
lzCBlDAJBgNVHRMEAjAAMB0GA1UdDgQWBBQRimn2Rryss72t5J6A047BbJcg0TBG
BgNVHSMEPzA9gBSx8INIYx5wj7qQWQ1npH6tYmKS/6EapBgwFjEUMBIGA1UEAwwL
RWFzeS1SU0EgQ0GCCQCiP3yriZQebzATBgNVHSUEDDAKBggrBgEFBQcDATALBgNV
HQ8EBAMCBaAwDQYJKoZIhvcNAQELBQADgYEARG37WXrFT9WHV2fL88ZfJnNnbOkT
q5HPuj7ihRM4bg0P3lT0RyKEqmIAbrRXxjfn/y3Q4YeNi9mzlylE5Tb9Ievj8Y4S
PNoQhOFy/r5e5HZfW+ce7r+bNTZQv0U0/IcbjvnQKjSZTLim31AZVe0JQt/KHokJ
wwWjIWY61RbqCl4=
-----END CERTIFICATE-----
