Certificate:
    Data:
        Version: 3 (0x2)
        Serial Number: 1 (0x1)
    Signature Algorithm: sha256WithRSAEncryption
        Issuer: CN=Easy-RSA CA
        Validity
            Not Before: Jan  5 15:34:36 2015 GMT
            Not After : Jan  2 15:34:36 2025 GMT
        Subject: CN=192.168.13.0_x509_server
        Subject Public Key Info:
            Public Key Algorithm: rsaEncryption
                Public-Key: (1024 bit)
                Modulus:
                    00:d1:e9:a5:75:33:33:ad:35:12:60:dd:d1:6d:2e:
                    a9:c4:62:17:99:1d:f2:21:13:56:5c:ee:b5:1c:72:
                    42:20:e9:6d:8e:7f:39:87:d8:fa:7e:d8:ce:72:11:
                    e2:47:2f:30:dc:e1:4f:25:e0:4f:fd:fe:c6:b6:0f:
                    30:53:e8:05:5c:b6:bc:15:98:e4:b4:8b:c5:28:d5:
                    ac:0a:87:1f:4a:c9:4d:37:7b:b6:0d:ad:63:20:76:
                    e0:2b:ae:09:e0:37:ac:3c:66:4d:82:0a:02:8d:9a:
                    07:80:ec:09:73:ef:c0:a5:f0:39:fd:ff:d0:28:64:
                    a1:04:39:4b:31:f7:19:c9:fb
                Exponent: 65537 (0x10001)
        X509v3 extensions:
            X509v3 Basic Constraints: 
                CA:FALSE
            X509v3 Subject Key Identifier: 
                5F:6D:58:6E:29:04:8E:8F:F0:06:F2:DC:4F:3C:CC:22:09:3C:91:25
            X509v3 Authority Key Identifier: 
                keyid:2E:14:4A:3A:BF:97:5B:F4:F3:C0:EC:99:0C:72:F4:7C:F3:EB:FD:68
                DirName:/CN=Easy-RSA CA
                serial:B8:C5:AD:F8:7B:B3:8E:1B

            X509v3 Extended Key Usage: 
                TLS Web Server Authentication
            X509v3 Key Usage: 
                Digital Signature, Key Encipherment
    Signature Algorithm: sha256WithRSAEncryption
         6e:36:1a:cf:e9:00:91:fb:c6:1b:09:59:0f:7d:7e:aa:31:22:
         7b:f1:35:e9:7a:3a:32:2b:a8:e9:1f:e7:49:0c:b3:39:1f:f9:
         0b:22:44:42:5f:53:c5:f8:10:fb:3d:99:d7:07:b9:2c:ea:16:
         4a:42:75:c7:d5:66:5b:a1:4f:00:ed:07:1f:c6:2b:f9:43:35:
         b6:22:ed:1a:46:06:4a:d2:13:07:27:35:d4:e4:cd:39:92:c6:
         8c:b3:2b:2b:05:33:35:dc:8d:38:a6:0c:fa:c2:a0:08:b6:79:
         de:a7:0f:fc:b5:cd:b2:c0:d6:4d:f6:0a:ca:24:b0:cb:01:e4:
         4f:ee
-----BEGIN CERTIFICATE-----
MIICRzCCAbCgAwIBAgIBATANBgkqhkiG9w0BAQsFADAWMRQwEgYDVQQDDAtFYXN5
LVJTQSBDQTAeFw0xNTAxMDUxNTM0MzZaFw0yNTAxMDIxNTM0MzZaMCMxITAfBgNV
BAMMGDE5Mi4xNjguMTMuMF94NTA5X3NlcnZlcjCBnzANBgkqhkiG9w0BAQEFAAOB
jQAwgYkCgYEA0emldTMzrTUSYN3RbS6pxGIXmR3yIRNWXO61HHJCIOltjn85h9j6
ftjOchHiRy8w3OFPJeBP/f7Gtg8wU+gFXLa8FZjktIvFKNWsCocfSslNN3u2Da1j
IHbgK64J4DesPGZNggoCjZoHgOwJc+/ApfA5/f/QKGShBDlLMfcZyfsCAwEAAaOB
lzCBlDAJBgNVHRMEAjAAMB0GA1UdDgQWBBRfbVhuKQSOj/AG8txPPMwiCTyRJTBG
BgNVHSMEPzA9gBQuFEo6v5db9PPA7JkMcvR88+v9aKEapBgwFjEUMBIGA1UEAwwL
RWFzeS1SU0EgQ0GCCQC4xa34e7OOGzATBgNVHSUEDDAKBggrBgEFBQcDATALBgNV
HQ8EBAMCBaAwDQYJKoZIhvcNAQELBQADgYEAbjYaz+kAkfvGGwlZD31+qjEie/E1
6Xo6Miuo6R/nSQyzOR/5CyJEQl9TxfgQ+z2Z1we5LOoWSkJ1x9VmW6FPAO0HH8Yr
+UM1tiLtGkYGStITByc11OTNOZLGjLMrKwUzNdyNOKYM+sKgCLZ53qcP/LXNssDW
TfYKyiSwywHkT+4=
-----END CERTIFICATE-----
