Certificate:
    Data:
        Version: 3 (0x2)
        Serial Number: 2 (0x2)
    Signature Algorithm: sha256WithRSAEncryption
        Issuer: CN=Easy-RSA CA
        Validity
            Not Before: Dec 19 13:43:42 2014 GMT
            Not After : Dec 16 13:43:42 2024 GMT
        Subject: CN=1_x509_server
        Subject Public Key Info:
            Public Key Algorithm: rsaEncryption
                Public-Key: (1024 bit)
                Modulus:
                    00:c6:bc:3a:ef:e4:43:29:ff:9a:4d:fc:27:87:81:
                    21:7d:17:9d:d9:3b:59:90:06:02:a9:10:39:3a:5b:
                    cc:68:6d:ce:88:18:b4:0f:af:23:a9:8a:12:52:ad:
                    52:42:c3:49:ec:b5:ea:5a:e2:b2:2b:84:8e:37:b6:
                    ad:aa:76:d9:1c:37:16:4d:4b:f8:69:79:a5:ca:66:
                    4a:a8:94:db:8f:ef:37:1f:b1:fc:b0:50:f5:86:17:
                    0e:b9:50:38:c9:39:d7:c7:8a:03:8c:82:9f:fa:64:
                    43:34:32:99:a0:33:1b:21:1e:68:a6:50:26:97:75:
                    3b:4f:93:eb:2b:01:3f:06:ab
                Exponent: 65537 (0x10001)
        X509v3 extensions:
            X509v3 Basic Constraints: 
                CA:FALSE
            X509v3 Subject Key Identifier: 
                DC:2A:E3:59:B5:BB:40:FC:A5:3C:A6:E8:5E:F3:FF:E1:30:69:30:24
            X509v3 Authority Key Identifier: 
                keyid:B1:F0:83:48:63:1E:70:8F:BA:90:59:0D:67:A4:7E:AD:62:62:92:FF
                DirName:/CN=Easy-RSA CA
                serial:A2:3F:7C:AB:89:94:1E:6F

            X509v3 Extended Key Usage: 
                TLS Web Server Authentication
            X509v3 Key Usage: 
                Digital Signature, Key Encipherment
    Signature Algorithm: sha256WithRSAEncryption
         21:29:41:7b:bf:4d:11:1a:a9:c8:ca:59:a1:09:0a:ff:c2:83:
         c0:9b:c8:61:2d:ba:ec:21:b6:80:9e:80:38:27:8d:44:c9:41:
         4d:b8:19:e9:23:4b:06:e2:10:a9:96:4d:97:04:dd:19:40:05:
         29:d5:d4:32:59:1c:cd:25:51:f9:c6:e5:33:14:fa:72:4c:70:
         7e:a4:85:e5:76:84:a7:57:6a:fd:77:db:aa:2b:30:69:a4:6b:
         5e:82:00:77:4a:ec:b9:fb:3e:f7:c6:f4:8f:f9:f4:ea:99:1a:
         61:2a:7b:0b:dd:6f:0f:24:bb:0f:56:40:45:0d:41:c1:30:cd:
         98:ea
-----BEGIN CERTIFICATE-----
MIICPDCCAaWgAwIBAgIBAjANBgkqhkiG9w0BAQsFADAWMRQwEgYDVQQDDAtFYXN5
LVJTQSBDQTAeFw0xNDEyMTkxMzQzNDJaFw0yNDEyMTYxMzQzNDJaMBgxFjAUBgNV
BAMMDTFfeDUwOV9zZXJ2ZXIwgZ8wDQYJKoZIhvcNAQEBBQADgY0AMIGJAoGBAMa8
Ou/kQyn/mk38J4eBIX0Xndk7WZAGAqkQOTpbzGhtzogYtA+vI6mKElKtUkLDSey1
6lrisiuEjje2rap22Rw3Fk1L+Gl5pcpmSqiU24/vNx+x/LBQ9YYXDrlQOMk518eK
A4yCn/pkQzQymaAzGyEeaKZQJpd1O0+T6ysBPwarAgMBAAGjgZcwgZQwCQYDVR0T
BAIwADAdBgNVHQ4EFgQU3CrjWbW7QPylPKboXvP/4TBpMCQwRgYDVR0jBD8wPYAU
sfCDSGMecI+6kFkNZ6R+rWJikv+hGqQYMBYxFDASBgNVBAMMC0Vhc3ktUlNBIENB
ggkAoj98q4mUHm8wEwYDVR0lBAwwCgYIKwYBBQUHAwEwCwYDVR0PBAQDAgWgMA0G
CSqGSIb3DQEBCwUAA4GBACEpQXu/TREaqcjKWaEJCv/Cg8CbyGEtuuwhtoCegDgn
jUTJQU24GekjSwbiEKmWTZcE3RlABSnV1DJZHM0lUfnG5TMU+nJMcH6kheV2hKdX
av1326orMGmka16CAHdK7Ln7PvfG9I/59OqZGmEqewvdbw8kuw9WQEUNQcEwzZjq
-----END CERTIFICATE-----
