Certificate:
    Data:
        Version: 3 (0x2)
        Serial Number: 1 (0x1)
    Signature Algorithm: sha256WithRSAEncryption
        Issuer: CN=Easy-RSA CA
        Validity
            Not Before: Dec 22 12:16:34 2014 GMT
            Not After : Dec 19 12:16:34 2024 GMT
        Subject: CN=cbnet.itinet.fr
        Subject Public Key Info:
            Public Key Algorithm: rsaEncryption
                Public-Key: (1024 bit)
                Modulus:
                    00:c5:3e:e5:bb:d9:75:5f:fb:b0:b8:ed:30:7d:75:
                    45:5a:f3:00:ce:3c:fd:a0:17:9e:3d:1d:4c:83:f6:
                    d3:26:42:9f:79:06:c0:22:06:a3:7f:a5:96:7f:76:
                    c0:f4:59:75:aa:35:d6:66:bd:d5:9a:c9:dc:ed:27:
                    54:40:7e:43:53:05:93:a4:77:84:7c:8f:63:8d:35:
                    e4:92:64:01:e6:c4:5c:4e:1a:aa:a7:2b:7f:28:47:
                    08:ed:ac:b3:b6:aa:4a:fc:68:a5:22:c6:cf:e5:a7:
                    85:6c:0b:a3:ec:b5:85:a3:17:0d:14:c1:56:d0:18:
                    3e:b4:2f:5b:a4:62:1d:13:f5
                Exponent: 65537 (0x10001)
        X509v3 extensions:
            X509v3 Basic Constraints: 
                CA:FALSE
            X509v3 Subject Key Identifier: 
                28:C4:87:F7:7B:7A:D2:37:69:5B:E0:E1:C8:E2:46:C8:06:AA:F6:E9
            X509v3 Authority Key Identifier: 
                keyid:F1:CB:07:43:DC:73:2B:46:0A:00:44:FB:23:9C:43:0C:06:36:8F:48
                DirName:/CN=Easy-RSA CA
                serial:89:03:74:DB:1E:54:8B:04

            X509v3 Extended Key Usage: 
                TLS Web Server Authentication
            X509v3 Key Usage: 
                Digital Signature, Key Encipherment
    Signature Algorithm: sha256WithRSAEncryption
         40:19:39:59:84:e6:8f:4f:bc:b9:08:10:2b:66:9b:26:60:10:
         1c:5a:77:60:29:6f:74:c1:d2:e5:4f:1f:d6:34:1c:44:7b:e4:
         fe:3f:cd:81:e6:13:0b:4b:03:72:07:8d:14:4b:99:b7:14:74:
         9b:d6:8c:f1:8c:d1:0f:22:33:00:27:26:dd:0a:df:24:d6:2f:
         c5:35:42:57:0a:6a:ae:83:b1:74:d8:ff:f4:87:22:a7:1e:36:
         42:f2:f1:a8:40:39:bb:ba:62:c5:f9:c3:70:9b:d8:f5:a0:2a:
         32:4b:43:65:d1:0a:12:0c:f2:0a:40:7a:6e:9a:f0:78:87:13:
         9d:1d
-----BEGIN CERTIFICATE-----
MIICPjCCAaegAwIBAgIBATANBgkqhkiG9w0BAQsFADAWMRQwEgYDVQQDDAtFYXN5
LVJTQSBDQTAeFw0xNDEyMjIxMjE2MzRaFw0yNDEyMTkxMjE2MzRaMBoxGDAWBgNV
BAMMD2NibmV0Lml0aW5ldC5mcjCBnzANBgkqhkiG9w0BAQEFAAOBjQAwgYkCgYEA
xT7lu9l1X/uwuO0wfXVFWvMAzjz9oBeePR1Mg/bTJkKfeQbAIgajf6WWf3bA9Fl1
qjXWZr3Vmsnc7SdUQH5DUwWTpHeEfI9jjTXkkmQB5sRcThqqpyt/KEcI7ayztqpK
/GilIsbP5aeFbAuj7LWFoxcNFMFW0Bg+tC9bpGIdE/UCAwEAAaOBlzCBlDAJBgNV
HRMEAjAAMB0GA1UdDgQWBBQoxIf3e3rSN2lb4OHI4kbIBqr26TBGBgNVHSMEPzA9
gBTxywdD3HMrRgoARPsjnEMMBjaPSKEapBgwFjEUMBIGA1UEAwwLRWFzeS1SU0Eg
Q0GCCQCJA3TbHlSLBDATBgNVHSUEDDAKBggrBgEFBQcDATALBgNVHQ8EBAMCBaAw
DQYJKoZIhvcNAQELBQADgYEAQBk5WYTmj0+8uQgQK2abJmAQHFp3YClvdMHS5U8f
1jQcRHvk/j/NgeYTC0sDcgeNFEuZtxR0m9aM8YzRDyIzACcm3QrfJNYvxTVCVwpq
roOxdNj/9Icipx42QvLxqEA5u7pixfnDcJvY9aAqMktDZdEKEgzyCkB6bprweIcT
nR0=
-----END CERTIFICATE-----
