Certificate:
    Data:
        Version: 3 (0x2)
        Serial Number: 1 (0x1)
    Signature Algorithm: sha256WithRSAEncryption
        Issuer: CN=Easy-RSA CA
        Validity
            Not Before: Jan  5 15:28:02 2015 GMT
            Not After : Jan  2 15:28:02 2025 GMT
        Subject: CN=192.168.13.0_x509_server
        Subject Public Key Info:
            Public Key Algorithm: rsaEncryption
                Public-Key: (1024 bit)
                Modulus:
                    00:bf:cc:96:90:48:e2:35:60:0f:c1:6d:7d:f9:45:
                    59:ed:b2:79:19:c3:41:3f:ab:81:05:ab:59:69:32:
                    61:60:f9:99:b2:0f:a2:48:ec:61:3f:8a:d9:f1:17:
                    8d:8e:22:27:7e:4b:af:62:80:3e:d9:ec:0b:60:06:
                    b6:d3:ee:7d:b3:09:4a:fb:51:4c:71:37:d1:9a:4e:
                    5a:6a:f9:3e:92:58:58:4c:c0:9a:28:99:b1:e1:d9:
                    13:c6:7a:12:13:c3:54:da:fe:1e:32:62:ef:e4:0b:
                    64:0d:d0:52:ec:81:e9:a8:15:af:61:1c:b2:dd:e5:
                    d5:cc:c9:34:af:4a:21:9c:6b
                Exponent: 65537 (0x10001)
        X509v3 extensions:
            X509v3 Basic Constraints: 
                CA:FALSE
            X509v3 Subject Key Identifier: 
                D7:F4:E3:C9:72:40:32:D0:88:18:93:CE:81:8A:5C:E5:73:9A:51:36
            X509v3 Authority Key Identifier: 
                keyid:A7:C1:74:61:9A:CD:CF:1C:E8:14:5E:E6:B5:78:FE:28:93:22:21:FF
                DirName:/CN=Easy-RSA CA
                serial:B9:CD:CF:BA:6E:12:D0:14

            X509v3 Extended Key Usage: 
                TLS Web Server Authentication
            X509v3 Key Usage: 
                Digital Signature, Key Encipherment
    Signature Algorithm: sha256WithRSAEncryption
         0d:bc:b5:a3:34:05:be:20:94:02:79:bd:27:f5:7d:f9:b0:54:
         79:e1:e1:75:ec:34:93:2b:f9:8a:78:4c:af:c0:9e:95:ff:61:
         fe:45:0e:ab:21:f3:dd:07:7d:98:ed:d4:37:3e:b4:8e:72:eb:
         35:a0:8d:ef:7e:cd:d2:3b:cc:d1:c0:13:8c:49:06:fd:c0:ba:
         09:24:76:5b:b0:96:4a:c2:24:a0:8f:0f:02:9e:28:bf:71:5d:
         8b:c0:5c:9c:4f:af:b0:87:8b:af:b8:65:8b:57:92:f8:39:da:
         3b:1b:51:bf:c3:1b:dc:31:39:65:60:b1:de:07:f0:51:d1:01:
         cd:09
-----BEGIN CERTIFICATE-----
MIICRzCCAbCgAwIBAgIBATANBgkqhkiG9w0BAQsFADAWMRQwEgYDVQQDDAtFYXN5
LVJTQSBDQTAeFw0xNTAxMDUxNTI4MDJaFw0yNTAxMDIxNTI4MDJaMCMxITAfBgNV
BAMMGDE5Mi4xNjguMTMuMF94NTA5X3NlcnZlcjCBnzANBgkqhkiG9w0BAQEFAAOB
jQAwgYkCgYEAv8yWkEjiNWAPwW19+UVZ7bJ5GcNBP6uBBatZaTJhYPmZsg+iSOxh
P4rZ8ReNjiInfkuvYoA+2ewLYAa20+59swlK+1FMcTfRmk5aavk+klhYTMCaKJmx
4dkTxnoSE8NU2v4eMmLv5AtkDdBS7IHpqBWvYRyy3eXVzMk0r0ohnGsCAwEAAaOB
lzCBlDAJBgNVHRMEAjAAMB0GA1UdDgQWBBTX9OPJckAy0IgYk86Bilzlc5pRNjBG
BgNVHSMEPzA9gBSnwXRhms3PHOgUXua1eP4okyIh/6EapBgwFjEUMBIGA1UEAwwL
RWFzeS1SU0EgQ0GCCQC5zc+6bhLQFDATBgNVHSUEDDAKBggrBgEFBQcDATALBgNV
HQ8EBAMCBaAwDQYJKoZIhvcNAQELBQADgYEADby1ozQFviCUAnm9J/V9+bBUeeHh
dew0kyv5inhMr8Celf9h/kUOqyHz3Qd9mO3UNz60jnLrNaCN737N0jvM0cATjEkG
/cC6CSR2W7CWSsIkoI8PAp4ov3Fdi8BcnE+vsIeLr7hli1eS+DnaOxtRv8Mb3DE5
ZWCx3gfwUdEBzQk=
-----END CERTIFICATE-----
