Certificate:
    Data:
        Version: 3 (0x2)
        Serial Number: 1 (0x1)
    Signature Algorithm: sha256WithRSAEncryption
        Issuer: CN=Easy-RSA CA
        Validity
            Not Before: Jan 23 09:31:49 2015 GMT
            Not After : Jan 20 09:31:49 2025 GMT
        Subject: CN=192.168.13.0_x509_server
        Subject Public Key Info:
            Public Key Algorithm: rsaEncryption
                Public-Key: (1024 bit)
                Modulus:
                    00:c7:61:31:c7:e5:76:5c:9c:b6:41:a3:b6:32:75:
                    83:0a:fa:4a:16:62:6d:7f:9a:0f:1a:8f:c2:87:d3:
                    58:f4:58:31:4a:31:70:5a:89:9f:f0:63:99:7d:27:
                    01:30:34:c3:f9:dc:01:df:04:44:bb:c5:a9:9f:45:
                    74:3d:4d:50:b0:c8:ec:4a:fd:69:6e:44:fd:bd:55:
                    97:ea:5e:1e:39:3b:11:ce:dc:49:1d:e6:c0:b3:11:
                    dd:c8:a4:4f:b5:73:71:ac:ed:7e:d6:86:07:56:d0:
                    48:11:ac:20:a8:0b:8f:1a:1c:94:88:34:2a:10:25:
                    58:c1:83:ce:f6:93:ef:97:87
                Exponent: 65537 (0x10001)
        X509v3 extensions:
            X509v3 Basic Constraints: 
                CA:FALSE
            X509v3 Subject Key Identifier: 
                44:8C:1C:9C:06:5B:A9:6D:00:8B:68:80:7D:CE:0E:73:71:46:9C:DD
            X509v3 Authority Key Identifier: 
                keyid:50:85:24:7D:7D:95:02:48:8A:5C:C9:5B:02:22:FE:AE:44:2F:A0:D0
                DirName:/CN=Easy-RSA CA
                serial:E0:36:CB:C4:8D:DD:AD:62

            X509v3 Extended Key Usage: 
                TLS Web Server Authentication
            X509v3 Key Usage: 
                Digital Signature, Key Encipherment
    Signature Algorithm: sha256WithRSAEncryption
         af:b9:46:7a:75:0b:5f:1b:87:54:2b:84:63:bb:ad:6b:dc:9f:
         53:03:b1:de:02:48:7a:97:d7:fd:90:53:d1:55:88:13:80:77:
         30:05:d5:de:a6:98:42:86:5c:be:20:4e:32:4b:c2:32:75:a3:
         56:22:eb:66:ed:51:3f:f3:54:5f:52:6f:fe:91:10:5b:9f:69:
         00:6f:ae:df:18:5c:8d:af:15:ff:2c:ad:10:a1:7f:45:71:ad:
         5b:0d:2d:58:2c:b3:56:92:b0:9c:33:5c:8d:43:05:9a:43:c9:
         d5:0e:e0:c2:a3:ba:c8:07:15:d7:3f:b5:59:72:60:f3:ea:4f:
         f9:bd
-----BEGIN CERTIFICATE-----
MIICRzCCAbCgAwIBAgIBATANBgkqhkiG9w0BAQsFADAWMRQwEgYDVQQDDAtFYXN5
LVJTQSBDQTAeFw0xNTAxMjMwOTMxNDlaFw0yNTAxMjAwOTMxNDlaMCMxITAfBgNV
BAMMGDE5Mi4xNjguMTMuMF94NTA5X3NlcnZlcjCBnzANBgkqhkiG9w0BAQEFAAOB
jQAwgYkCgYEAx2Exx+V2XJy2QaO2MnWDCvpKFmJtf5oPGo/Ch9NY9FgxSjFwWomf
8GOZfScBMDTD+dwB3wREu8Wpn0V0PU1QsMjsSv1pbkT9vVWX6l4eOTsRztxJHebA
sxHdyKRPtXNxrO1+1oYHVtBIEawgqAuPGhyUiDQqECVYwYPO9pPvl4cCAwEAAaOB
lzCBlDAJBgNVHRMEAjAAMB0GA1UdDgQWBBREjBycBlupbQCLaIB9zg5zcUac3TBG
BgNVHSMEPzA9gBRQhSR9fZUCSIpcyVsCIv6uRC+g0KEapBgwFjEUMBIGA1UEAwwL
RWFzeS1SU0EgQ0GCCQDgNsvEjd2tYjATBgNVHSUEDDAKBggrBgEFBQcDATALBgNV
HQ8EBAMCBaAwDQYJKoZIhvcNAQELBQADgYEAr7lGenULXxuHVCuEY7uta9yfUwOx
3gJIepfX/ZBT0VWIE4B3MAXV3qaYQoZcviBOMkvCMnWjViLrZu1RP/NUX1Jv/pEQ
W59pAG+u3xhcja8V/yytEKF/RXGtWw0tWCyzVpKwnDNcjUMFmkPJ1Q7gwqO6yAcV
1z+1WXJg8+pP+b0=
-----END CERTIFICATE-----
