Certificate:
    Data:
        Version: 3 (0x2)
        Serial Number: 1 (0x1)
    Signature Algorithm: sha256WithRSAEncryption
        Issuer: CN=Easy-RSA CA
        Validity
            Not Before: Dec 19 00:12:58 2014 GMT
            Not After : Dec 16 00:12:58 2024 GMT
        Subject: CN=192.168.13.0_x509_server
        Subject Public Key Info:
            Public Key Algorithm: rsaEncryption
                Public-Key: (1024 bit)
                Modulus:
                    00:c6:af:3b:01:78:de:5f:59:70:8c:6b:ad:79:64:
                    3d:79:59:47:7d:23:87:48:1c:9c:50:0d:96:61:df:
                    cc:ec:7e:d7:93:38:2d:5f:c4:17:d3:c1:7f:d9:4b:
                    ec:b4:48:23:13:20:43:57:22:f7:92:9c:3b:71:dc:
                    87:e1:05:a3:8a:12:48:e9:49:12:b8:b6:ba:06:ea:
                    6a:ca:b4:9e:04:62:90:65:28:02:73:68:4c:75:3f:
                    90:9b:ef:30:f9:24:1e:7b:1b:26:c2:a4:78:3f:68:
                    5e:c8:8e:bb:58:d3:55:46:e3:9a:49:54:05:28:ce:
                    14:81:94:65:d6:ac:76:72:b3
                Exponent: 65537 (0x10001)
        X509v3 extensions:
            X509v3 Basic Constraints: 
                CA:FALSE
            X509v3 Subject Key Identifier: 
                48:60:D9:08:3D:6D:2D:79:F1:76:CB:CD:9F:E0:C2:21:5E:2F:2B:BB
            X509v3 Authority Key Identifier: 
                keyid:8A:2A:DA:DD:43:C7:F3:D6:CF:05:DE:0D:8C:23:E4:45:47:FB:6D:98
                DirName:/CN=Easy-RSA CA
                serial:B4:B3:37:8C:40:28:D2:DA

            X509v3 Extended Key Usage: 
                TLS Web Server Authentication
            X509v3 Key Usage: 
                Digital Signature, Key Encipherment
    Signature Algorithm: sha256WithRSAEncryption
         72:c7:4d:9c:15:d1:aa:96:03:af:4e:e8:c6:80:d5:3e:42:ba:
         cf:a6:3e:5b:43:29:aa:8c:c2:c3:f8:ce:ee:3f:27:78:db:4b:
         0e:d7:d0:88:47:fa:05:f5:31:de:d0:d0:10:6f:e4:72:b6:c8:
         6c:41:4e:18:35:a7:0e:a6:8f:3f:87:4f:0d:2c:d8:a0:06:51:
         e8:00:25:c7:6e:44:4c:48:d5:01:34:c2:f2:e5:bb:17:16:09:
         b6:24:96:80:01:8b:c4:0e:e7:1e:ed:be:53:eb:a3:55:60:3a:
         60:2b:92:8b:c2:f9:be:2f:da:10:1d:ea:ce:99:11:ac:be:7c:
         93:bf
-----BEGIN CERTIFICATE-----
MIICRzCCAbCgAwIBAgIBATANBgkqhkiG9w0BAQsFADAWMRQwEgYDVQQDDAtFYXN5
LVJTQSBDQTAeFw0xNDEyMTkwMDEyNThaFw0yNDEyMTYwMDEyNThaMCMxITAfBgNV
BAMMGDE5Mi4xNjguMTMuMF94NTA5X3NlcnZlcjCBnzANBgkqhkiG9w0BAQEFAAOB
jQAwgYkCgYEAxq87AXjeX1lwjGuteWQ9eVlHfSOHSBycUA2WYd/M7H7XkzgtX8QX
08F/2UvstEgjEyBDVyL3kpw7cdyH4QWjihJI6UkSuLa6BupqyrSeBGKQZSgCc2hM
dT+Qm+8w+SQeexsmwqR4P2heyI67WNNVRuOaSVQFKM4UgZRl1qx2crMCAwEAAaOB
lzCBlDAJBgNVHRMEAjAAMB0GA1UdDgQWBBRIYNkIPW0tefF2y82f4MIhXi8ruzBG
BgNVHSMEPzA9gBSKKtrdQ8fz1s8F3g2MI+RFR/ttmKEapBgwFjEUMBIGA1UEAwwL
RWFzeS1SU0EgQ0GCCQC0szeMQCjS2jATBgNVHSUEDDAKBggrBgEFBQcDATALBgNV
HQ8EBAMCBaAwDQYJKoZIhvcNAQELBQADgYEAcsdNnBXRqpYDr07oxoDVPkK6z6Y+
W0MpqozCw/jO7j8neNtLDtfQiEf6BfUx3tDQEG/kcrbIbEFOGDWnDqaPP4dPDSzY
oAZR6AAlx25ETEjVATTC8uW7FxYJtiSWgAGLxA7nHu2+U+ujVWA6YCuSi8L5vi/a
EB3qzpkRrL58k78=
-----END CERTIFICATE-----
