Certificate:
    Data:
        Version: 3 (0x2)
        Serial Number: 2 (0x2)
    Signature Algorithm: sha256WithRSAEncryption
        Issuer: CN=Easy-RSA CA
        Validity
            Not Before: Jan  5 15:28:54 2015 GMT
            Not After : Jan  2 15:28:54 2025 GMT
        Subject: CN=coucou_192.168.13.0_x509_client
        Subject Public Key Info:
            Public Key Algorithm: rsaEncryption
                Public-Key: (1024 bit)
                Modulus:
                    00:cb:fd:e5:f4:0f:de:25:b3:f4:e7:d0:ed:34:47:
                    1e:10:5f:a1:67:cf:df:d5:9b:ab:81:85:92:15:67:
                    9e:d2:f0:df:f4:7b:6c:47:52:7f:ea:fe:10:bf:d4:
                    46:93:61:a7:18:30:7f:3a:59:c9:19:c4:7b:5f:6f:
                    d3:40:0b:66:0c:0a:e9:d8:43:5a:e9:ff:5d:bb:dc:
                    27:69:8d:12:e7:94:ee:8e:c8:ef:62:51:68:ce:10:
                    08:c2:74:74:25:e0:d5:41:b8:da:44:38:c7:75:86:
                    3e:b5:0b:47:bc:64:d4:64:30:20:9d:d0:3d:14:ed:
                    7b:14:f6:d2:af:19:34:5e:ad
                Exponent: 65537 (0x10001)
        X509v3 extensions:
            X509v3 Basic Constraints: 
                CA:FALSE
            X509v3 Subject Key Identifier: 
                25:4A:28:93:D4:9B:06:4E:3E:6F:06:D5:06:8E:67:00:0B:84:BF:F4
            X509v3 Authority Key Identifier: 
                keyid:A7:C1:74:61:9A:CD:CF:1C:E8:14:5E:E6:B5:78:FE:28:93:22:21:FF
                DirName:/CN=Easy-RSA CA
                serial:B9:CD:CF:BA:6E:12:D0:14

            X509v3 Extended Key Usage: 
                TLS Web Client Authentication
            X509v3 Key Usage: 
                Digital Signature
    Signature Algorithm: sha256WithRSAEncryption
         3b:3f:22:70:53:c8:55:99:5d:ec:56:8f:61:5e:b8:8b:e2:83:
         29:d4:3a:b4:08:86:ef:80:2d:0c:d9:74:14:3a:9f:cd:55:9f:
         bf:79:59:e9:ce:c9:a0:8f:b3:de:82:20:fa:60:24:f4:26:5a:
         33:c5:19:1d:6d:70:59:15:cd:5e:43:04:14:90:91:f2:bf:aa:
         64:4f:8f:20:41:cb:9e:e2:09:e3:ea:40:1f:a6:31:fb:de:24:
         73:e2:f7:71:08:80:ad:77:bf:c8:6a:04:bb:0b:0c:dd:89:aa:
         fb:c1:ae:10:46:7b:d5:4b:1b:d5:f9:90:23:81:e8:e1:87:15:
         5a:ae
-----BEGIN CERTIFICATE-----
MIICTjCCAbegAwIBAgIBAjANBgkqhkiG9w0BAQsFADAWMRQwEgYDVQQDDAtFYXN5
LVJTQSBDQTAeFw0xNTAxMDUxNTI4NTRaFw0yNTAxMDIxNTI4NTRaMCoxKDAmBgNV
BAMMH2NvdWNvdV8xOTIuMTY4LjEzLjBfeDUwOV9jbGllbnQwgZ8wDQYJKoZIhvcN
AQEBBQADgY0AMIGJAoGBAMv95fQP3iWz9OfQ7TRHHhBfoWfP39Wbq4GFkhVnntLw
3/R7bEdSf+r+EL/URpNhpxgwfzpZyRnEe19v00ALZgwK6dhDWun/XbvcJ2mNEueU
7o7I72JRaM4QCMJ0dCXg1UG42kQ4x3WGPrULR7xk1GQwIJ3QPRTtexT20q8ZNF6t
AgMBAAGjgZcwgZQwCQYDVR0TBAIwADAdBgNVHQ4EFgQUJUook9SbBk4+bwbVBo5n
AAuEv/QwRgYDVR0jBD8wPYAUp8F0YZrNzxzoFF7mtXj+KJMiIf+hGqQYMBYxFDAS
BgNVBAMMC0Vhc3ktUlNBIENBggkAuc3Pum4S0BQwEwYDVR0lBAwwCgYIKwYBBQUH
AwIwCwYDVR0PBAQDAgeAMA0GCSqGSIb3DQEBCwUAA4GBADs/InBTyFWZXexWj2Fe
uIvigynUOrQIhu+ALQzZdBQ6n81Vn795WenOyaCPs96CIPpgJPQmWjPFGR1tcFkV
zV5DBBSQkfK/qmRPjyBBy57iCePqQB+mMfveJHPi93EIgK13v8hqBLsLDN2JqvvB
rhBGe9VLG9X5kCOB6OGHFVqu
-----END CERTIFICATE-----
