Certificate:
    Data:
        Version: 3 (0x2)
        Serial Number: 2 (0x2)
    Signature Algorithm: sha256WithRSAEncryption
        Issuer: CN=Easy-RSA CA
        Validity
            Not Before: Jan 23 09:32:19 2015 GMT
            Not After : Jan 20 09:32:19 2025 GMT
        Subject: CN=toto_192.168.13.0_x509_client
        Subject Public Key Info:
            Public Key Algorithm: rsaEncryption
                Public-Key: (1024 bit)
                Modulus:
                    00:d3:e8:e7:af:da:95:a0:79:9e:f8:7d:79:16:3c:
                    55:64:2b:21:d0:69:e9:c8:9a:6d:72:06:4b:95:53:
                    9b:63:07:66:25:e8:8b:fe:18:e0:1e:08:fe:1b:24:
                    a5:88:0d:a9:ca:5c:e4:5a:2a:94:0a:17:4f:37:f8:
                    64:8b:88:ef:e1:1c:f3:a6:b6:a2:df:d8:a5:b4:34:
                    08:3d:98:80:18:a5:4d:dd:33:40:2c:e2:f1:75:d3:
                    99:4f:92:b1:1f:3b:e6:d1:0b:7b:7c:c3:37:1d:82:
                    26:be:36:42:f1:34:55:a8:17:1c:03:dc:36:f1:ed:
                    33:a9:81:2f:ab:92:43:4c:71
                Exponent: 65537 (0x10001)
        X509v3 extensions:
            X509v3 Basic Constraints: 
                CA:FALSE
            X509v3 Subject Key Identifier: 
                B0:B7:F7:81:7B:53:59:92:0A:A4:A2:6B:D1:D9:12:11:96:29:4D:E0
            X509v3 Authority Key Identifier: 
                keyid:50:85:24:7D:7D:95:02:48:8A:5C:C9:5B:02:22:FE:AE:44:2F:A0:D0
                DirName:/CN=Easy-RSA CA
                serial:E0:36:CB:C4:8D:DD:AD:62

            X509v3 Extended Key Usage: 
                TLS Web Client Authentication
            X509v3 Key Usage: 
                Digital Signature
    Signature Algorithm: sha256WithRSAEncryption
         4a:f6:4d:3a:b7:17:95:06:7a:d3:02:a2:66:bf:35:77:e6:21:
         00:b5:48:a7:9b:bf:ad:0e:4e:5a:c5:f8:8e:b6:93:37:b2:7b:
         d0:d9:09:99:67:6b:bd:e8:4d:0d:93:0e:84:b9:a5:3a:81:52:
         e2:d7:dd:04:6f:9b:87:f1:0a:dc:8b:fc:41:5d:7f:32:80:2a:
         08:5d:75:df:71:bd:bb:ae:77:50:83:53:c8:1b:6b:90:de:e1:
         7e:26:8d:a1:3c:c5:b6:ee:41:cd:2b:6d:ed:b4:b2:6a:2b:12:
         6e:64:3f:10:76:2d:d2:b8:2e:65:f5:52:0d:ce:fa:60:df:46:
         21:4f
-----BEGIN CERTIFICATE-----
MIICTDCCAbWgAwIBAgIBAjANBgkqhkiG9w0BAQsFADAWMRQwEgYDVQQDDAtFYXN5
LVJTQSBDQTAeFw0xNTAxMjMwOTMyMTlaFw0yNTAxMjAwOTMyMTlaMCgxJjAkBgNV
BAMMHXRvdG9fMTkyLjE2OC4xMy4wX3g1MDlfY2xpZW50MIGfMA0GCSqGSIb3DQEB
AQUAA4GNADCBiQKBgQDT6Oev2pWgeZ74fXkWPFVkKyHQaenImm1yBkuVU5tjB2Yl
6Iv+GOAeCP4bJKWIDanKXORaKpQKF083+GSLiO/hHPOmtqLf2KW0NAg9mIAYpU3d
M0As4vF105lPkrEfO+bRC3t8wzcdgia+NkLxNFWoFxwD3Dbx7TOpgS+rkkNMcQID
AQABo4GXMIGUMAkGA1UdEwQCMAAwHQYDVR0OBBYEFLC394F7U1mSCqSia9HZEhGW
KU3gMEYGA1UdIwQ/MD2AFFCFJH19lQJIilzJWwIi/q5EL6DQoRqkGDAWMRQwEgYD
VQQDDAtFYXN5LVJTQSBDQYIJAOA2y8SN3a1iMBMGA1UdJQQMMAoGCCsGAQUFBwMC
MAsGA1UdDwQEAwIHgDANBgkqhkiG9w0BAQsFAAOBgQBK9k06txeVBnrTAqJmvzV3
5iEAtUinm7+tDk5axfiOtpM3snvQ2QmZZ2u96E0Nkw6EuaU6gVLi190Eb5uH8Qrc
i/xBXX8ygCoIXXXfcb27rndQg1PIG2uQ3uF+Jo2hPMW27kHNK23ttLJqKxJuZD8Q
di3SuC5l9VINzvpg30YhTw==
-----END CERTIFICATE-----
