Certificate:
    Data:
        Version: 3 (0x2)
        Serial Number: 2 (0x2)
    Signature Algorithm: sha256WithRSAEncryption
        Issuer: CN=Easy-RSA CA
        Validity
            Not Before: Dec 19 00:13:17 2014 GMT
            Not After : Dec 16 00:13:17 2024 GMT
        Subject: CN=test_x509_client
        Subject Public Key Info:
            Public Key Algorithm: rsaEncryption
                Public-Key: (1024 bit)
                Modulus:
                    00:ce:53:a4:61:ce:9a:07:13:8b:6e:7a:48:62:3c:
                    53:61:f0:9d:e2:3e:0d:17:f6:f6:7d:3e:ff:22:47:
                    4c:01:09:58:61:7e:1a:b5:ca:60:84:92:eb:58:82:
                    64:a0:d9:52:bf:bd:fe:51:2e:50:25:72:72:4d:d9:
                    92:08:1f:c6:82:69:6b:11:20:d5:5e:41:25:f1:da:
                    99:4f:01:f3:e0:0a:67:47:37:b0:03:18:dc:51:cc:
                    8c:35:c9:6f:30:be:18:a5:7d:d8:43:9c:59:28:18:
                    17:d7:f4:99:b1:60:51:a2:6b:d5:9d:fe:6d:8c:12:
                    d0:8a:a2:59:b8:c6:3c:31:69
                Exponent: 65537 (0x10001)
        X509v3 extensions:
            X509v3 Basic Constraints: 
                CA:FALSE
            X509v3 Subject Key Identifier: 
                16:63:F4:DC:41:68:2E:EA:B9:12:F0:DF:1B:6A:8C:F9:A2:BD:1D:EE
            X509v3 Authority Key Identifier: 
                keyid:8A:2A:DA:DD:43:C7:F3:D6:CF:05:DE:0D:8C:23:E4:45:47:FB:6D:98
                DirName:/CN=Easy-RSA CA
                serial:B4:B3:37:8C:40:28:D2:DA

            X509v3 Extended Key Usage: 
                TLS Web Client Authentication
            X509v3 Key Usage: 
                Digital Signature
    Signature Algorithm: sha256WithRSAEncryption
         b1:48:72:0b:5e:c7:f5:b6:ea:c4:37:2d:6c:39:d0:e0:15:b4:
         2d:1e:7e:58:46:e5:a5:e7:41:19:b5:66:39:1e:e7:26:e3:0f:
         7d:44:80:be:8d:db:9f:87:52:5b:ad:65:83:70:a0:0e:7c:3e:
         3b:2f:82:60:13:6d:e8:0f:c4:1b:a5:2b:52:2b:67:74:f3:a1:
         1f:3f:95:dd:fa:83:fc:14:79:11:90:40:74:64:9b:d5:d1:24:
         43:b9:04:80:09:24:a7:17:40:04:f0:f4:bb:e5:a7:c0:4e:83:
         03:55:65:fd:b5:2f:3c:fd:9f:b0:54:be:e6:d0:0c:d7:35:27:
         6e:42
-----BEGIN CERTIFICATE-----
MIICPzCCAaigAwIBAgIBAjANBgkqhkiG9w0BAQsFADAWMRQwEgYDVQQDDAtFYXN5
LVJTQSBDQTAeFw0xNDEyMTkwMDEzMTdaFw0yNDEyMTYwMDEzMTdaMBsxGTAXBgNV
BAMMEHRlc3RfeDUwOV9jbGllbnQwgZ8wDQYJKoZIhvcNAQEBBQADgY0AMIGJAoGB
AM5TpGHOmgcTi256SGI8U2HwneI+DRf29n0+/yJHTAEJWGF+GrXKYISS61iCZKDZ
Ur+9/lEuUCVyck3ZkggfxoJpaxEg1V5BJfHamU8B8+AKZ0c3sAMY3FHMjDXJbzC+
GKV92EOcWSgYF9f0mbFgUaJr1Z3+bYwS0IqiWbjGPDFpAgMBAAGjgZcwgZQwCQYD
VR0TBAIwADAdBgNVHQ4EFgQUFmP03EFoLuq5EvDfG2qM+aK9He4wRgYDVR0jBD8w
PYAUiira3UPH89bPBd4NjCPkRUf7bZihGqQYMBYxFDASBgNVBAMMC0Vhc3ktUlNB
IENBggkAtLM3jEAo0towEwYDVR0lBAwwCgYIKwYBBQUHAwIwCwYDVR0PBAQDAgeA
MA0GCSqGSIb3DQEBCwUAA4GBALFIcgtex/W26sQ3LWw50OAVtC0eflhG5aXnQRm1
Zjke5ybjD31EgL6N25+HUlutZYNwoA58PjsvgmATbegPxBulK1IrZ3TzoR8/ld36
g/wUeRGQQHRkm9XRJEO5BIAJJKcXQATw9Lvlp8BOgwNVZf21Lzz9n7BUvubQDNc1
J25C
-----END CERTIFICATE-----
