Certificate:
    Data:
        Version: 3 (0x2)
        Serial Number: 3 (0x3)
    Signature Algorithm: sha256WithRSAEncryption
        Issuer: CN=Easy-RSA CA
        Validity
            Not Before: Dec 19 00:13:29 2014 GMT
            Not After : Dec 16 00:13:29 2024 GMT
        Subject: CN=test1_x509_client
        Subject Public Key Info:
            Public Key Algorithm: rsaEncryption
                Public-Key: (1024 bit)
                Modulus:
                    00:bb:98:40:f0:12:77:46:67:2f:56:02:02:de:10:
                    91:dc:b8:f9:b5:33:8e:9a:2e:06:31:81:e0:ba:31:
                    5d:94:4a:3f:54:a5:68:27:60:dd:bb:c1:2c:c1:75:
                    76:ce:52:79:8a:5f:11:80:5b:0c:91:6e:f1:c0:b6:
                    ab:3a:96:78:5b:e6:06:ac:9f:75:3f:02:52:ef:ce:
                    65:9c:cc:4b:eb:f0:83:bc:d5:87:87:2a:fd:de:a0:
                    99:f4:99:37:53:c5:d8:09:f4:c7:1f:d6:36:83:6b:
                    ba:cd:0d:67:d3:09:47:36:9a:e6:45:4e:41:02:43:
                    68:67:76:59:6c:04:30:23:2f
                Exponent: 65537 (0x10001)
        X509v3 extensions:
            X509v3 Basic Constraints: 
                CA:FALSE
            X509v3 Subject Key Identifier: 
                23:67:25:C6:3A:6F:17:C3:9B:4F:61:E9:05:B5:2A:A1:40:16:12:36
            X509v3 Authority Key Identifier: 
                keyid:8A:2A:DA:DD:43:C7:F3:D6:CF:05:DE:0D:8C:23:E4:45:47:FB:6D:98
                DirName:/CN=Easy-RSA CA
                serial:B4:B3:37:8C:40:28:D2:DA

            X509v3 Extended Key Usage: 
                TLS Web Client Authentication
            X509v3 Key Usage: 
                Digital Signature
    Signature Algorithm: sha256WithRSAEncryption
         b2:57:dd:f7:8d:9b:85:a4:d6:b9:d8:f4:f7:be:29:c5:55:ca:
         1c:71:82:77:46:18:0b:79:77:ab:68:44:7f:02:90:6c:ae:26:
         70:19:80:e1:bb:ae:60:75:55:89:ba:91:22:6d:b1:7f:ae:33:
         be:4c:d1:9e:fd:df:fb:0c:2d:9b:d5:e1:d5:dd:b7:24:22:d4:
         2f:33:55:aa:9e:b0:50:bb:0f:29:52:83:f2:61:cf:41:d9:74:
         c7:50:2c:2c:9b:f6:66:f2:5d:0e:3c:a6:36:f2:08:d0:fc:fb:
         ae:27:f0:c9:6f:4a:6a:99:bd:c7:b3:71:64:fb:bf:5a:1f:1d:
         00:6e
-----BEGIN CERTIFICATE-----
MIICQDCCAamgAwIBAgIBAzANBgkqhkiG9w0BAQsFADAWMRQwEgYDVQQDDAtFYXN5
LVJTQSBDQTAeFw0xNDEyMTkwMDEzMjlaFw0yNDEyMTYwMDEzMjlaMBwxGjAYBgNV
BAMMEXRlc3QxX3g1MDlfY2xpZW50MIGfMA0GCSqGSIb3DQEBAQUAA4GNADCBiQKB
gQC7mEDwEndGZy9WAgLeEJHcuPm1M46aLgYxgeC6MV2USj9UpWgnYN27wSzBdXbO
UnmKXxGAWwyRbvHAtqs6lnhb5gasn3U/AlLvzmWczEvr8IO81YeHKv3eoJn0mTdT
xdgJ9Mcf1jaDa7rNDWfTCUc2muZFTkECQ2hndllsBDAjLwIDAQABo4GXMIGUMAkG
A1UdEwQCMAAwHQYDVR0OBBYEFCNnJcY6bxfDm09h6QW1KqFAFhI2MEYGA1UdIwQ/
MD2AFIoq2t1Dx/PWzwXeDYwj5EVH+22YoRqkGDAWMRQwEgYDVQQDDAtFYXN5LVJT
QSBDQYIJALSzN4xAKNLaMBMGA1UdJQQMMAoGCCsGAQUFBwMCMAsGA1UdDwQEAwIH
gDANBgkqhkiG9w0BAQsFAAOBgQCyV933jZuFpNa52PT3vinFVcoccYJ3RhgLeXer
aER/ApBsriZwGYDhu65gdVWJupEibbF/rjO+TNGe/d/7DC2b1eHV3bckItQvM1Wq
nrBQuw8pUoPyYc9B2XTHUCwsm/Zm8l0OPKY28gjQ/PuuJ/DJb0pqmb3Hs3Fk+79a
Hx0Abg==
-----END CERTIFICATE-----
