Certificate:
    Data:
        Version: 3 (0x2)
        Serial Number: 3 (0x3)
    Signature Algorithm: sha256WithRSAEncryption
        Issuer: CN=Easy-RSA CA
        Validity
            Not Before: Jan  5 15:29:06 2015 GMT
            Not After : Jan  2 15:29:06 2025 GMT
        Subject: CN=coucou1_192.168.13.0_x509_client
        Subject Public Key Info:
            Public Key Algorithm: rsaEncryption
                Public-Key: (1024 bit)
                Modulus:
                    00:b0:ea:9e:00:45:ca:6b:66:57:69:c3:f8:6e:e9:
                    cb:9e:1e:31:f8:21:8f:62:50:10:95:86:3a:b2:52:
                    19:1d:18:3d:57:75:e4:57:98:c9:5f:5e:8a:a8:ec:
                    98:39:c5:ae:21:b3:6f:8f:77:af:ae:97:db:4e:d3:
                    26:44:67:5f:b2:93:b4:c8:19:13:ff:fa:38:fb:83:
                    9b:7a:41:ff:75:2c:f8:55:14:5d:5d:de:03:f9:8a:
                    18:bd:a3:45:fe:c3:97:e1:2c:79:61:fe:fd:5b:d7:
                    74:1c:d8:41:27:f0:aa:12:09:c8:90:bd:25:94:ce:
                    73:9e:a3:e9:d8:f4:07:50:03
                Exponent: 65537 (0x10001)
        X509v3 extensions:
            X509v3 Basic Constraints: 
                CA:FALSE
            X509v3 Subject Key Identifier: 
                AB:AB:20:D2:01:01:60:71:FC:3D:3F:29:92:D8:F0:1C:BB:B5:1C:13
            X509v3 Authority Key Identifier: 
                keyid:A7:C1:74:61:9A:CD:CF:1C:E8:14:5E:E6:B5:78:FE:28:93:22:21:FF
                DirName:/CN=Easy-RSA CA
                serial:B9:CD:CF:BA:6E:12:D0:14

            X509v3 Extended Key Usage: 
                TLS Web Client Authentication
            X509v3 Key Usage: 
                Digital Signature
    Signature Algorithm: sha256WithRSAEncryption
         5b:ee:4c:56:b9:2a:9f:00:77:1a:29:e8:d3:c1:63:1b:e7:ca:
         ab:7d:5d:12:9c:18:45:20:17:cb:13:20:e2:0b:4d:d1:55:dc:
         f3:f7:21:0f:06:c9:b5:27:84:c0:c7:cc:67:3e:9b:ea:af:93:
         9b:02:7e:af:4d:49:ef:d5:df:8d:0e:81:75:0a:05:8b:b9:f8:
         cb:6e:f3:ff:0e:e6:6e:88:6b:4e:e1:33:df:99:4e:14:39:cf:
         d2:5b:5a:1e:5a:77:6b:87:ac:b0:45:87:fe:8b:12:e7:3c:d8:
         19:9f:8f:4f:14:c5:4e:c4:31:44:8b:d4:b8:36:51:b6:c5:a7:
         9b:80
-----BEGIN CERTIFICATE-----
MIICTzCCAbigAwIBAgIBAzANBgkqhkiG9w0BAQsFADAWMRQwEgYDVQQDDAtFYXN5
LVJTQSBDQTAeFw0xNTAxMDUxNTI5MDZaFw0yNTAxMDIxNTI5MDZaMCsxKTAnBgNV
BAMMIGNvdWNvdTFfMTkyLjE2OC4xMy4wX3g1MDlfY2xpZW50MIGfMA0GCSqGSIb3
DQEBAQUAA4GNADCBiQKBgQCw6p4ARcprZldpw/hu6cueHjH4IY9iUBCVhjqyUhkd
GD1XdeRXmMlfXoqo7Jg5xa4hs2+Pd6+ul9tO0yZEZ1+yk7TIGRP/+jj7g5t6Qf91
LPhVFF1d3gP5ihi9o0X+w5fhLHlh/v1b13Qc2EEn8KoSCciQvSWUznOeo+nY9AdQ
AwIDAQABo4GXMIGUMAkGA1UdEwQCMAAwHQYDVR0OBBYEFKurINIBAWBx/D0/KZLY
8By7tRwTMEYGA1UdIwQ/MD2AFKfBdGGazc8c6BRe5rV4/iiTIiH/oRqkGDAWMRQw
EgYDVQQDDAtFYXN5LVJTQSBDQYIJALnNz7puEtAUMBMGA1UdJQQMMAoGCCsGAQUF
BwMCMAsGA1UdDwQEAwIHgDANBgkqhkiG9w0BAQsFAAOBgQBb7kxWuSqfAHcaKejT
wWMb58qrfV0SnBhFIBfLEyDiC03RVdzz9yEPBsm1J4TAx8xnPpvqr5ObAn6vTUnv
1d+NDoF1CgWLufjLbvP/DuZuiGtO4TPfmU4UOc/SW1oeWndrh6ywRYf+ixLnPNgZ
n49PFMVOxDFEi9S4NlG2xaebgA==
-----END CERTIFICATE-----
