Certificate:
    Data:
        Version: 3 (0x2)
        Serial Number: 4 (0x4)
    Signature Algorithm: sha256WithRSAEncryption
        Issuer: CN=Easy-RSA CA
        Validity
            Not Before: Jan  5 15:30:03 2015 GMT
            Not After : Jan  2 15:30:03 2025 GMT
        Subject: CN=192.168.13.0_x509_server
        Subject Public Key Info:
            Public Key Algorithm: rsaEncryption
                Public-Key: (1024 bit)
                Modulus:
                    00:e5:4a:a9:a3:97:95:2d:fc:b7:02:47:bf:82:2c:
                    1e:d6:d7:d7:96:68:3c:d9:b1:53:2c:2c:6a:31:b7:
                    f9:09:42:6b:46:16:76:64:22:13:1d:28:a3:e5:c4:
                    2f:c7:e6:f1:74:be:b0:00:12:06:54:ac:00:9e:b1:
                    5d:7f:b5:43:38:ae:70:11:1c:13:ea:67:bb:37:0b:
                    41:1b:a6:1e:1f:ad:5c:c9:43:54:e8:33:0d:1b:de:
                    69:dc:fb:c5:ef:25:d1:df:08:3f:52:64:05:25:5e:
                    a8:62:bf:d2:58:45:a6:0f:42:bb:a9:2c:fc:b0:b9:
                    35:7b:45:15:ca:d7:a2:c2:45
                Exponent: 65537 (0x10001)
        X509v3 extensions:
            X509v3 Basic Constraints: 
                CA:FALSE
            X509v3 Subject Key Identifier: 
                A7:CC:41:6B:EA:28:EE:46:B9:74:0E:F1:EB:3A:E8:DB:C4:DD:31:F1
            X509v3 Authority Key Identifier: 
                keyid:A7:C1:74:61:9A:CD:CF:1C:E8:14:5E:E6:B5:78:FE:28:93:22:21:FF
                DirName:/CN=Easy-RSA CA
                serial:B9:CD:CF:BA:6E:12:D0:14

            X509v3 Extended Key Usage: 
                TLS Web Server Authentication
            X509v3 Key Usage: 
                Digital Signature, Key Encipherment
    Signature Algorithm: sha256WithRSAEncryption
         45:69:6a:12:85:29:a8:69:34:85:02:d4:d9:b6:f3:f4:89:01:
         9b:cc:f9:84:64:c5:f9:0d:13:97:35:9e:d0:77:17:64:74:84:
         3c:44:86:3b:55:b3:7f:98:ca:e5:14:68:cb:e5:bc:81:be:45:
         35:03:e0:b3:34:cf:21:14:c6:3e:38:e1:6a:34:d4:35:a5:00:
         0a:97:a7:13:7b:2d:fe:64:0c:d5:4a:6c:aa:80:ca:75:44:df:
         7b:4f:c9:c8:d4:b4:c4:9c:26:3e:de:2b:77:15:a4:e7:9f:a2:
         6d:20:d9:38:78:4e:76:d6:2f:27:b8:c8:27:54:77:c3:94:e8:
         a0:a8
-----BEGIN CERTIFICATE-----
MIICRzCCAbCgAwIBAgIBBDANBgkqhkiG9w0BAQsFADAWMRQwEgYDVQQDDAtFYXN5
LVJTQSBDQTAeFw0xNTAxMDUxNTMwMDNaFw0yNTAxMDIxNTMwMDNaMCMxITAfBgNV
BAMMGDE5Mi4xNjguMTMuMF94NTA5X3NlcnZlcjCBnzANBgkqhkiG9w0BAQEFAAOB
jQAwgYkCgYEA5Uqpo5eVLfy3Ake/giwe1tfXlmg82bFTLCxqMbf5CUJrRhZ2ZCIT
HSij5cQvx+bxdL6wABIGVKwAnrFdf7VDOK5wERwT6me7NwtBG6YeH61cyUNU6DMN
G95p3PvF7yXR3wg/UmQFJV6oYr/SWEWmD0K7qSz8sLk1e0UVyteiwkUCAwEAAaOB
lzCBlDAJBgNVHRMEAjAAMB0GA1UdDgQWBBSnzEFr6ijuRrl0DvHrOujbxN0x8TBG
BgNVHSMEPzA9gBSnwXRhms3PHOgUXua1eP4okyIh/6EapBgwFjEUMBIGA1UEAwwL
RWFzeS1SU0EgQ0GCCQC5zc+6bhLQFDATBgNVHSUEDDAKBggrBgEFBQcDATALBgNV
HQ8EBAMCBaAwDQYJKoZIhvcNAQELBQADgYEARWlqEoUpqGk0hQLU2bbz9IkBm8z5
hGTF+Q0TlzWe0HcXZHSEPESGO1Wzf5jK5RRoy+W8gb5FNQPgszTPIRTGPjjhajTU
NaUACpenE3st/mQM1UpsqoDKdUTfe0/JyNS0xJwmPt4rdxWk55+ibSDZOHhOdtYv
J7jIJ1R3w5TooKg=
-----END CERTIFICATE-----
