Certificate:
    Data:
        Version: 3 (0x2)
        Serial Number: 5 (0x5)
    Signature Algorithm: sha256WithRSAEncryption
        Issuer: CN=Easy-RSA CA
        Validity
            Not Before: Jan  5 15:31:10 2015 GMT
            Not After : Jan  2 15:31:10 2025 GMT
        Subject: CN=192.168.13.0_x509_server
        Subject Public Key Info:
            Public Key Algorithm: rsaEncryption
                Public-Key: (1024 bit)
                Modulus:
                    00:bb:1e:95:5a:9a:cb:02:d0:ac:df:df:c9:ca:15:
                    99:9b:1f:1d:6c:b7:1f:f8:5a:4a:f8:86:9c:60:1e:
                    d3:29:2f:cc:87:7b:1a:48:49:60:4b:9e:d1:9f:f2:
                    b8:09:a8:26:26:4e:19:94:f3:94:01:9f:00:e2:a3:
                    6a:d0:63:d6:dd:3d:11:cb:df:92:8d:9f:6c:54:36:
                    e1:87:42:86:24:41:37:8f:22:53:ce:7e:d3:a7:d5:
                    16:96:ad:1a:a2:05:8d:e0:f1:d8:e8:a3:1b:ff:37:
                    b1:8e:f2:5e:99:90:0e:e6:10:11:cf:5f:c9:a5:03:
                    fa:bc:6b:ea:57:73:0e:c9:37
                Exponent: 65537 (0x10001)
        X509v3 extensions:
            X509v3 Basic Constraints: 
                CA:FALSE
            X509v3 Subject Key Identifier: 
                97:D6:63:FF:03:28:85:18:73:C9:3A:F1:CF:23:6C:AB:76:C8:CE:5D
            X509v3 Authority Key Identifier: 
                keyid:A7:C1:74:61:9A:CD:CF:1C:E8:14:5E:E6:B5:78:FE:28:93:22:21:FF
                DirName:/CN=Easy-RSA CA
                serial:B9:CD:CF:BA:6E:12:D0:14

            X509v3 Extended Key Usage: 
                TLS Web Server Authentication
            X509v3 Key Usage: 
                Digital Signature, Key Encipherment
    Signature Algorithm: sha256WithRSAEncryption
         a4:15:d0:b5:09:78:d0:2d:36:86:88:92:f8:cd:d2:a6:a0:13:
         ef:a6:9b:42:08:42:f6:30:03:eb:da:06:cb:a3:96:2b:e1:08:
         96:4f:6d:cf:00:b5:b3:a1:3b:26:e9:16:0d:3a:26:89:93:cd:
         bf:6b:62:7a:41:a4:ae:05:03:a0:43:f9:b2:4d:62:af:b6:10:
         cf:7f:43:93:76:8a:4b:42:ea:ce:33:88:04:d7:40:40:95:4e:
         91:87:53:ac:fa:ac:78:4c:b7:9d:7e:f9:0b:07:f9:a0:fc:cd:
         e5:71:08:33:2c:af:a4:c0:9a:a1:ac:fe:76:43:e9:fa:da:d4:
         c0:5e
-----BEGIN CERTIFICATE-----
MIICRzCCAbCgAwIBAgIBBTANBgkqhkiG9w0BAQsFADAWMRQwEgYDVQQDDAtFYXN5
LVJTQSBDQTAeFw0xNTAxMDUxNTMxMTBaFw0yNTAxMDIxNTMxMTBaMCMxITAfBgNV
BAMMGDE5Mi4xNjguMTMuMF94NTA5X3NlcnZlcjCBnzANBgkqhkiG9w0BAQEFAAOB
jQAwgYkCgYEAux6VWprLAtCs39/JyhWZmx8dbLcf+FpK+IacYB7TKS/Mh3saSElg
S57Rn/K4CagmJk4ZlPOUAZ8A4qNq0GPW3T0Ry9+SjZ9sVDbhh0KGJEE3jyJTzn7T
p9UWlq0aogWN4PHY6KMb/zexjvJemZAO5hARz1/JpQP6vGvqV3MOyTcCAwEAAaOB
lzCBlDAJBgNVHRMEAjAAMB0GA1UdDgQWBBSX1mP/AyiFGHPJOvHPI2yrdsjOXTBG
BgNVHSMEPzA9gBSnwXRhms3PHOgUXua1eP4okyIh/6EapBgwFjEUMBIGA1UEAwwL
RWFzeS1SU0EgQ0GCCQC5zc+6bhLQFDATBgNVHSUEDDAKBggrBgEFBQcDATALBgNV
HQ8EBAMCBaAwDQYJKoZIhvcNAQELBQADgYEApBXQtQl40C02hoiS+M3SpqAT76ab
QghC9jAD69oGy6OWK+EIlk9tzwC1s6E7JukWDTomiZPNv2tiekGkrgUDoEP5sk1i
r7YQz39Dk3aKS0LqzjOIBNdAQJVOkYdTrPqseEy3nX75Cwf5oPzN5XEIMyyvpMCa
oaz+dkPp+trUwF4=
-----END CERTIFICATE-----
