Certificate:
    Data:
        Version: 3 (0x2)
        Serial Number: 6 (0x6)
    Signature Algorithm: sha256WithRSAEncryption
        Issuer: CN=Easy-RSA CA
        Validity
            Not Before: Jan  5 15:32:12 2015 GMT
            Not After : Jan  2 15:32:12 2025 GMT
        Subject: CN=192.168.13.0_x509_server
        Subject Public Key Info:
            Public Key Algorithm: rsaEncryption
                Public-Key: (1024 bit)
                Modulus:
                    00:e3:df:70:91:43:ee:7f:cd:bd:85:4b:64:c4:6c:
                    f0:cc:4e:25:83:e6:54:05:cd:ca:60:fe:e8:4e:35:
                    58:4a:bd:62:dd:7b:dd:56:9d:5b:af:29:be:61:3e:
                    44:6a:fa:ae:2b:24:b2:3e:f3:71:d9:53:78:5a:f0:
                    8c:b8:fd:b4:e8:2d:e6:f8:e6:36:40:70:9e:9d:ae:
                    49:bb:0c:51:bf:f6:96:e2:aa:a1:44:2b:2c:fe:df:
                    cd:db:98:3d:4e:87:dd:f5:c4:c5:f0:e6:06:0f:96:
                    7e:99:a3:d7:e1:f0:7b:d4:17:e3:b9:e7:79:23:53:
                    1d:fa:4e:dc:7e:a7:9c:28:f5
                Exponent: 65537 (0x10001)
        X509v3 extensions:
            X509v3 Basic Constraints: 
                CA:FALSE
            X509v3 Subject Key Identifier: 
                DA:DD:16:B7:33:A1:B3:D8:5D:3D:43:4C:4D:79:FE:28:50:FA:0D:C8
            X509v3 Authority Key Identifier: 
                keyid:A7:C1:74:61:9A:CD:CF:1C:E8:14:5E:E6:B5:78:FE:28:93:22:21:FF
                DirName:/CN=Easy-RSA CA
                serial:B9:CD:CF:BA:6E:12:D0:14

            X509v3 Extended Key Usage: 
                TLS Web Server Authentication
            X509v3 Key Usage: 
                Digital Signature, Key Encipherment
    Signature Algorithm: sha256WithRSAEncryption
         22:25:db:40:b0:a6:59:4e:31:4a:4c:d8:8e:76:30:4e:54:b1:
         1c:2b:42:b5:f1:42:56:a5:d9:b0:e5:1e:a0:89:85:81:00:c0:
         b6:8b:2d:79:bd:66:9b:c4:bc:8c:24:d6:19:3c:f5:1c:c9:52:
         74:cc:19:99:01:a8:a4:46:0a:a1:b2:2c:1f:2b:04:ca:e7:93:
         3f:e4:3f:3f:e1:45:ad:4d:9b:94:bf:b1:98:86:26:5e:61:e4:
         92:2e:48:e9:1f:9e:35:db:ce:19:52:92:98:39:d5:55:e1:e0:
         40:70:fc:ee:21:1b:d5:d4:2f:3f:94:ab:25:b6:4f:1e:c6:1a:
         4c:e9
-----BEGIN CERTIFICATE-----
MIICRzCCAbCgAwIBAgIBBjANBgkqhkiG9w0BAQsFADAWMRQwEgYDVQQDDAtFYXN5
LVJTQSBDQTAeFw0xNTAxMDUxNTMyMTJaFw0yNTAxMDIxNTMyMTJaMCMxITAfBgNV
BAMMGDE5Mi4xNjguMTMuMF94NTA5X3NlcnZlcjCBnzANBgkqhkiG9w0BAQEFAAOB
jQAwgYkCgYEA499wkUPuf829hUtkxGzwzE4lg+ZUBc3KYP7oTjVYSr1i3XvdVp1b
rym+YT5EavquKySyPvNx2VN4WvCMuP206C3m+OY2QHCena5JuwxRv/aW4qqhRCss
/t/N25g9Tofd9cTF8OYGD5Z+maPX4fB71Bfjued5I1Md+k7cfqecKPUCAwEAAaOB
lzCBlDAJBgNVHRMEAjAAMB0GA1UdDgQWBBTa3Ra3M6Gz2F09Q0xNef4oUPoNyDBG
BgNVHSMEPzA9gBSnwXRhms3PHOgUXua1eP4okyIh/6EapBgwFjEUMBIGA1UEAwwL
RWFzeS1SU0EgQ0GCCQC5zc+6bhLQFDATBgNVHSUEDDAKBggrBgEFBQcDATALBgNV
HQ8EBAMCBaAwDQYJKoZIhvcNAQELBQADgYEAIiXbQLCmWU4xSkzYjnYwTlSxHCtC
tfFCVqXZsOUeoImFgQDAtosteb1mm8S8jCTWGTz1HMlSdMwZmQGopEYKobIsHysE
yueTP+Q/P+FFrU2blL+xmIYmXmHkki5I6R+eNdvOGVKSmDnVVeHgQHD87iEb1dQv
P5SrJbZPHsYaTOk=
-----END CERTIFICATE-----
