Certificate:
    Data:
        Version: 3 (0x2)
        Serial Number: 7 (0x7)
    Signature Algorithm: sha256WithRSAEncryption
        Issuer: CN=Easy-RSA CA
        Validity
            Not Before: Jan  5 15:32:41 2015 GMT
            Not After : Jan  2 15:32:41 2025 GMT
        Subject: CN=192.168.13.0_x509_server
        Subject Public Key Info:
            Public Key Algorithm: rsaEncryption
                Public-Key: (1024 bit)
                Modulus:
                    00:f1:fb:1d:e6:3d:3e:5c:5e:a2:70:58:b5:4c:91:
                    ab:f7:fa:ce:76:42:29:c5:fd:63:ba:73:93:d3:a3:
                    35:ec:63:16:4f:cd:3c:0d:09:89:67:81:1d:73:21:
                    56:4b:87:05:67:b6:c1:52:f7:3c:82:a0:07:79:7f:
                    af:a2:e6:fe:d2:84:71:cb:8a:f4:df:ee:0a:e1:10:
                    11:30:ad:74:a9:3f:ab:5e:c7:49:65:3d:55:f3:f1:
                    5f:9b:07:3f:58:85:95:5c:65:85:0f:7b:db:12:9a:
                    5c:63:ea:aa:aa:9d:f0:43:03:1d:81:ce:32:78:13:
                    c7:c5:12:67:63:19:c4:92:93
                Exponent: 65537 (0x10001)
        X509v3 extensions:
            X509v3 Basic Constraints: 
                CA:FALSE
            X509v3 Subject Key Identifier: 
                69:25:F4:7B:AC:16:31:D5:D6:D2:7E:02:EF:68:67:57:77:87:40:B3
            X509v3 Authority Key Identifier: 
                keyid:A7:C1:74:61:9A:CD:CF:1C:E8:14:5E:E6:B5:78:FE:28:93:22:21:FF
                DirName:/CN=Easy-RSA CA
                serial:B9:CD:CF:BA:6E:12:D0:14

            X509v3 Extended Key Usage: 
                TLS Web Server Authentication
            X509v3 Key Usage: 
                Digital Signature, Key Encipherment
    Signature Algorithm: sha256WithRSAEncryption
         01:d3:69:23:c9:69:3a:d8:07:78:89:7f:86:6c:fd:b7:45:7e:
         7d:ee:ff:fd:db:1a:d0:09:8c:21:35:a8:d2:ac:59:e7:52:bd:
         cc:34:15:45:91:1c:e5:f3:d5:37:8b:97:3e:55:2f:3c:04:eb:
         f4:63:b6:5b:66:8d:37:72:40:e7:be:e1:bf:a0:1e:99:50:fc:
         af:74:08:6f:4a:3a:db:6b:44:5f:1e:7f:ef:bc:86:c5:b0:d8:
         73:0e:80:3f:71:d5:17:7f:59:1c:c7:4b:e9:59:44:af:77:57:
         12:8f:47:5a:19:73:b5:15:18:4d:65:e8:97:08:00:90:eb:cb:
         8e:41
-----BEGIN CERTIFICATE-----
MIICRzCCAbCgAwIBAgIBBzANBgkqhkiG9w0BAQsFADAWMRQwEgYDVQQDDAtFYXN5
LVJTQSBDQTAeFw0xNTAxMDUxNTMyNDFaFw0yNTAxMDIxNTMyNDFaMCMxITAfBgNV
BAMMGDE5Mi4xNjguMTMuMF94NTA5X3NlcnZlcjCBnzANBgkqhkiG9w0BAQEFAAOB
jQAwgYkCgYEA8fsd5j0+XF6icFi1TJGr9/rOdkIpxf1junOT06M17GMWT808DQmJ
Z4EdcyFWS4cFZ7bBUvc8gqAHeX+voub+0oRxy4r03+4K4RARMK10qT+rXsdJZT1V
8/Ffmwc/WIWVXGWFD3vbEppcY+qqqp3wQwMdgc4yeBPHxRJnYxnEkpMCAwEAAaOB
lzCBlDAJBgNVHRMEAjAAMB0GA1UdDgQWBBRpJfR7rBYx1dbSfgLvaGdXd4dAszBG
BgNVHSMEPzA9gBSnwXRhms3PHOgUXua1eP4okyIh/6EapBgwFjEUMBIGA1UEAwwL
RWFzeS1SU0EgQ0GCCQC5zc+6bhLQFDATBgNVHSUEDDAKBggrBgEFBQcDATALBgNV
HQ8EBAMCBaAwDQYJKoZIhvcNAQELBQADgYEAAdNpI8lpOtgHeIl/hmz9t0V+fe7/
/dsa0AmMITWo0qxZ51K9zDQVRZEc5fPVN4uXPlUvPATr9GO2W2aNN3JA577hv6Ae
mVD8r3QIb0o622tEXx5/77yGxbDYcw6AP3HVF39ZHMdL6VlEr3dXEo9HWhlztRUY
TWXolwgAkOvLjkE=
-----END CERTIFICATE-----
