Certificate:
    Data:
        Version: 3 (0x2)
        Serial Number: 8 (0x8)
    Signature Algorithm: sha256WithRSAEncryption
        Issuer: CN=Easy-RSA CA
        Validity
            Not Before: Jan  5 15:32:56 2015 GMT
            Not After : Jan  2 15:32:56 2025 GMT
        Subject: CN=192.168.13.10_x509_server
        Subject Public Key Info:
            Public Key Algorithm: rsaEncryption
                Public-Key: (1024 bit)
                Modulus:
                    00:b5:87:7a:f7:4c:65:79:35:27:23:e8:a8:b7:84:
                    63:e4:a7:70:de:d7:3e:2c:be:52:33:89:e7:4d:d1:
                    cc:c4:28:4d:17:24:5c:f0:df:b2:94:5c:89:a7:99:
                    a0:b0:75:09:20:d0:2a:f8:5f:ae:ee:9b:d6:68:7b:
                    47:2b:1f:76:bc:f0:1d:0b:fd:8c:fe:78:43:e2:24:
                    79:88:a8:37:f8:89:c5:f2:a7:79:c7:c7:9f:e9:a2:
                    84:4e:88:e3:27:ea:2f:d1:23:01:f0:9c:fb:89:b7:
                    6b:6e:b2:99:2b:6a:96:d2:7d:ac:52:11:7b:0d:17:
                    5c:bd:bf:62:4c:30:49:f0:83
                Exponent: 65537 (0x10001)
        X509v3 extensions:
            X509v3 Basic Constraints: 
                CA:FALSE
            X509v3 Subject Key Identifier: 
                CC:50:E3:7A:9C:42:0A:E2:24:D8:CA:92:03:39:5A:E3:6C:84:C8:47
            X509v3 Authority Key Identifier: 
                keyid:A7:C1:74:61:9A:CD:CF:1C:E8:14:5E:E6:B5:78:FE:28:93:22:21:FF
                DirName:/CN=Easy-RSA CA
                serial:B9:CD:CF:BA:6E:12:D0:14

            X509v3 Extended Key Usage: 
                TLS Web Server Authentication
            X509v3 Key Usage: 
                Digital Signature, Key Encipherment
    Signature Algorithm: sha256WithRSAEncryption
         1e:cf:c1:c4:6f:fe:66:2f:ce:58:cd:35:63:fc:3c:b0:5f:6f:
         0d:48:bd:5e:ea:e1:79:af:a9:ee:3c:3a:53:17:f8:23:72:cf:
         66:75:ba:cc:bd:70:74:e6:26:00:3a:b8:ce:15:e3:ae:e3:bc:
         c9:9a:c2:3d:61:b6:0e:79:8f:1d:9d:12:5a:0a:67:69:75:4a:
         a2:58:50:72:ad:8f:37:e4:40:33:3d:61:da:06:45:9f:ec:da:
         75:21:01:68:c8:55:46:44:c1:ba:d7:50:20:9d:77:44:de:24:
         02:0d:3e:6e:ce:d1:d3:69:f7:bf:80:5a:9c:e4:3e:87:e0:2e:
         6c:17
-----BEGIN CERTIFICATE-----
MIICSDCCAbGgAwIBAgIBCDANBgkqhkiG9w0BAQsFADAWMRQwEgYDVQQDDAtFYXN5
LVJTQSBDQTAeFw0xNTAxMDUxNTMyNTZaFw0yNTAxMDIxNTMyNTZaMCQxIjAgBgNV
BAMMGTE5Mi4xNjguMTMuMTBfeDUwOV9zZXJ2ZXIwgZ8wDQYJKoZIhvcNAQEBBQAD
gY0AMIGJAoGBALWHevdMZXk1JyPoqLeEY+SncN7XPiy+UjOJ503RzMQoTRckXPDf
spRciaeZoLB1CSDQKvhfru6b1mh7RysfdrzwHQv9jP54Q+IkeYioN/iJxfKnecfH
n+mihE6I4yfqL9EjAfCc+4m3a26ymStqltJ9rFIRew0XXL2/YkwwSfCDAgMBAAGj
gZcwgZQwCQYDVR0TBAIwADAdBgNVHQ4EFgQUzFDjepxCCuIk2MqSAzla42yEyEcw
RgYDVR0jBD8wPYAUp8F0YZrNzxzoFF7mtXj+KJMiIf+hGqQYMBYxFDASBgNVBAMM
C0Vhc3ktUlNBIENBggkAuc3Pum4S0BQwEwYDVR0lBAwwCgYIKwYBBQUHAwEwCwYD
VR0PBAQDAgWgMA0GCSqGSIb3DQEBCwUAA4GBAB7PwcRv/mYvzljNNWP8PLBfbw1I
vV7q4Xmvqe48OlMX+CNyz2Z1usy9cHTmJgA6uM4V467jvMmawj1htg55jx2dEloK
Z2l1SqJYUHKtjzfkQDM9YdoGRZ/s2nUhAWjIVUZEwbrXUCCdd0TeJAINPm7O0dNp
97+AWpzkPofgLmwX
-----END CERTIFICATE-----
