Certificate:
    Data:
        Version: 3 (0x2)
        Serial Number: 9 (0x9)
    Signature Algorithm: sha256WithRSAEncryption
        Issuer: CN=Easy-RSA CA
        Validity
            Not Before: Jan  5 15:33:17 2015 GMT
            Not After : Jan  2 15:33:17 2025 GMT
        Subject: CN=coucou_192.168.13.10_x509_client
        Subject Public Key Info:
            Public Key Algorithm: rsaEncryption
                Public-Key: (1024 bit)
                Modulus:
                    00:a8:ec:af:02:74:b9:39:0c:0d:48:9b:dc:b2:e5:
                    c6:fe:55:81:82:77:5e:ab:c8:75:e5:bc:15:8b:fa:
                    91:ff:5a:b1:4d:20:13:13:3d:da:9a:2a:ff:68:3c:
                    83:8d:1b:f0:4f:95:aa:b9:ec:ee:6c:6c:6f:d5:c8:
                    90:a9:7a:39:9c:25:29:33:9c:df:cb:86:d0:f3:c1:
                    f3:29:7b:79:a7:d2:51:3c:59:a6:08:97:80:2f:38:
                    bc:fd:13:e0:dd:60:a4:0e:f0:f6:08:63:1c:a5:77:
                    ec:93:87:f5:7f:c2:86:65:29:54:7c:bf:29:b7:b1:
                    4a:c9:98:55:1d:74:87:a7:73
                Exponent: 65537 (0x10001)
        X509v3 extensions:
            X509v3 Basic Constraints: 
                CA:FALSE
            X509v3 Subject Key Identifier: 
                9D:62:7C:30:C2:E2:F2:11:AC:06:43:34:33:BA:28:CD:CB:8F:57:6B
            X509v3 Authority Key Identifier: 
                keyid:A7:C1:74:61:9A:CD:CF:1C:E8:14:5E:E6:B5:78:FE:28:93:22:21:FF
                DirName:/CN=Easy-RSA CA
                serial:B9:CD:CF:BA:6E:12:D0:14

            X509v3 Extended Key Usage: 
                TLS Web Client Authentication
            X509v3 Key Usage: 
                Digital Signature
    Signature Algorithm: sha256WithRSAEncryption
         4a:06:33:0b:d1:82:12:42:45:90:cd:b6:e6:5f:59:13:5f:53:
         5c:4b:1d:c0:47:96:89:f1:6a:21:fe:06:e2:aa:21:1a:ee:89:
         8f:84:eb:4c:32:bc:70:e3:cd:a0:4a:22:1f:0e:1f:2c:b9:83:
         80:9c:7e:94:1d:62:84:5c:d2:ee:97:53:7e:bf:c7:9a:8a:e0:
         91:c9:7f:b2:0f:f9:2b:4c:d1:52:e1:14:b0:a1:bb:7f:66:d6:
         f8:1e:54:22:4b:97:9a:12:1a:08:e4:89:18:47:43:0f:8f:59:
         17:9f:41:b3:31:8f:07:34:e4:16:75:73:50:ec:58:a0:17:ea:
         b4:90
-----BEGIN CERTIFICATE-----
MIICTzCCAbigAwIBAgIBCTANBgkqhkiG9w0BAQsFADAWMRQwEgYDVQQDDAtFYXN5
LVJTQSBDQTAeFw0xNTAxMDUxNTMzMTdaFw0yNTAxMDIxNTMzMTdaMCsxKTAnBgNV
BAMMIGNvdWNvdV8xOTIuMTY4LjEzLjEwX3g1MDlfY2xpZW50MIGfMA0GCSqGSIb3
DQEBAQUAA4GNADCBiQKBgQCo7K8CdLk5DA1Im9yy5cb+VYGCd16ryHXlvBWL+pH/
WrFNIBMTPdqaKv9oPIONG/BPlaq57O5sbG/VyJCpejmcJSkznN/LhtDzwfMpe3mn
0lE8WaYIl4AvOLz9E+DdYKQO8PYIYxyld+yTh/V/woZlKVR8vym3sUrJmFUddIen
cwIDAQABo4GXMIGUMAkGA1UdEwQCMAAwHQYDVR0OBBYEFJ1ifDDC4vIRrAZDNDO6
KM3Lj1drMEYGA1UdIwQ/MD2AFKfBdGGazc8c6BRe5rV4/iiTIiH/oRqkGDAWMRQw
EgYDVQQDDAtFYXN5LVJTQSBDQYIJALnNz7puEtAUMBMGA1UdJQQMMAoGCCsGAQUF
BwMCMAsGA1UdDwQEAwIHgDANBgkqhkiG9w0BAQsFAAOBgQBKBjML0YISQkWQzbbm
X1kTX1NcSx3AR5aJ8Woh/gbiqiEa7omPhOtMMrxw482gSiIfDh8suYOAnH6UHWKE
XNLul1N+v8eaiuCRyX+yD/krTNFS4RSwobt/Ztb4HlQiS5eaEhoI5IkYR0MPj1kX
n0GzMY8HNOQWdXNQ7FigF+q0kA==
-----END CERTIFICATE-----
